target datalayout = "e-m:e-p270:32:32-p271:32:32-p272:64:64-i64:64-i128:128-f80:128-n8:16:32:64-S128"
target triple = "x86_64-pc-linux-gnu"

%struct.mbedtls_mpi = type { ptr, i16, i16 }

; Function Attrs: inlinehint nounwind uwtable
define internal void @carry64(ptr noundef %0, ptr noundef %1) #2 {
  %3 = alloca ptr, align 8
  %4 = alloca ptr, align 8
  %5 = alloca i8, align 1
  store ptr %0, ptr %3, align 8, !tbaa !23
  store ptr %1, ptr %4, align 8, !tbaa !23
  call void @llvm.lifetime.start.p0(i64 1, ptr %5) #6
  store i8 0, ptr %5, align 1, !tbaa !33
  br label %6

6:                                                ; preds = %24, %2
  %7 = load i8, ptr %5, align 1, !tbaa !33
  %8 = zext i8 %7 to i64
  %9 = icmp ult i64 %8, 1
  br i1 %9, label %10, label %29

10:                                               ; preds = %6
  %11 = load ptr, ptr %4, align 8, !tbaa !23
  %12 = load i64, ptr %11, align 8, !tbaa !21
  %13 = load ptr, ptr %3, align 8, !tbaa !23
  %14 = load i64, ptr %13, align 8, !tbaa !21
  %15 = add i64 %14, %12
  store i64 %15, ptr %13, align 8, !tbaa !21
  %16 = load ptr, ptr %3, align 8, !tbaa !23
  %17 = load i64, ptr %16, align 8, !tbaa !21
  %18 = load ptr, ptr %4, align 8, !tbaa !23
  %19 = load i64, ptr %18, align 8, !tbaa !21
  %20 = icmp ult i64 %17, %19
  %21 = zext i1 %20 to i32
  %22 = sext i32 %21 to i64
  %23 = load ptr, ptr %4, align 8, !tbaa !23
  store i64 %22, ptr %23, align 8, !tbaa !21
  br label %24

24:                                               ; preds = %10
  %25 = load i8, ptr %5, align 1, !tbaa !33
  %26 = add i8 %25, 1
  store i8 %26, ptr %5, align 1, !tbaa !33
  %27 = load ptr, ptr %3, align 8, !tbaa !23
  %28 = getelementptr inbounds nuw i64, ptr %27, i32 1
  store ptr %28, ptr %3, align 8, !tbaa !23
  br label %6, !llvm.loop !44

29:                                               ; preds = %6
  call void @llvm.lifetime.end.p0(i64 1, ptr %5) #6
  ret void
}

; Function Attrs: inlinehint nounwind uwtable
define internal void @add64(ptr noundef %0, ptr noundef %1, ptr noundef %2) #2 {
  %4 = alloca ptr, align 8
  %5 = alloca ptr, align 8
  %6 = alloca ptr, align 8
  %7 = alloca i8, align 1
  %8 = alloca i64, align 8
  store ptr %0, ptr %4, align 8, !tbaa !23
  store ptr %1, ptr %5, align 8, !tbaa !23
  store ptr %2, ptr %6, align 8, !tbaa !23
  call void @llvm.lifetime.start.p0(i64 1, ptr %7) #6
  call void @llvm.lifetime.start.p0(i64 8, ptr %8) #6
  store i64 0, ptr %8, align 8, !tbaa !21
  store i8 0, ptr %7, align 1, !tbaa !33
  br label %9

9:                                                ; preds = %38, %3
  %10 = load i8, ptr %7, align 1, !tbaa !33
  %11 = zext i8 %10 to i64
  %12 = icmp ult i64 %11, 1
  br i1 %12, label %13, label %45

13:                                               ; preds = %9
  %14 = load i64, ptr %8, align 8, !tbaa !21
  %15 = load ptr, ptr %4, align 8, !tbaa !23
  %16 = load i64, ptr %15, align 8, !tbaa !21
  %17 = add i64 %16, %14
  store i64 %17, ptr %15, align 8, !tbaa !21
  %18 = load ptr, ptr %4, align 8, !tbaa !23
  %19 = load i64, ptr %18, align 8, !tbaa !21
  %20 = load i64, ptr %8, align 8, !tbaa !21
  %21 = icmp ult i64 %19, %20
  %22 = zext i1 %21 to i32
  %23 = sext i32 %22 to i64
  store i64 %23, ptr %8, align 8, !tbaa !21
  %24 = load ptr, ptr %5, align 8, !tbaa !23
  %25 = load i64, ptr %24, align 8, !tbaa !21
  %26 = load ptr, ptr %4, align 8, !tbaa !23
  %27 = load i64, ptr %26, align 8, !tbaa !21
  %28 = add i64 %27, %25
  store i64 %28, ptr %26, align 8, !tbaa !21
  %29 = load ptr, ptr %4, align 8, !tbaa !23
  %30 = load i64, ptr %29, align 8, !tbaa !21
  %31 = load ptr, ptr %5, align 8, !tbaa !23
  %32 = load i64, ptr %31, align 8, !tbaa !21
  %33 = icmp ult i64 %30, %32
  %34 = zext i1 %33 to i32
  %35 = sext i32 %34 to i64
  %36 = load i64, ptr %8, align 8, !tbaa !21
  %37 = add i64 %36, %35
  store i64 %37, ptr %8, align 8, !tbaa !21
  br label %38

38:                                               ; preds = %13
  %39 = load i8, ptr %7, align 1, !tbaa !33
  %40 = add i8 %39, 1
  store i8 %40, ptr %7, align 1, !tbaa !33
  %41 = load ptr, ptr %4, align 8, !tbaa !23
  %42 = getelementptr inbounds nuw i64, ptr %41, i32 1
  store ptr %42, ptr %4, align 8, !tbaa !23
  %43 = load ptr, ptr %5, align 8, !tbaa !23
  %44 = getelementptr inbounds nuw i64, ptr %43, i32 1
  store ptr %44, ptr %5, align 8, !tbaa !23
  br label %9, !llvm.loop !43

45:                                               ; preds = %9
  %46 = load i64, ptr %8, align 8, !tbaa !21
  %47 = load ptr, ptr %6, align 8, !tbaa !23
  %48 = load i64, ptr %47, align 8, !tbaa !21
  %49 = add i64 %48, %46
  store i64 %49, ptr %47, align 8, !tbaa !21
  call void @llvm.lifetime.end.p0(i64 8, ptr %8) #6
  call void @llvm.lifetime.end.p0(i64 1, ptr %7) #6
  ret void
}

; Function Attrs: nounwind uwtable
define internal i32 @ecp_mod_p192(ptr noundef %0) #0 {
  %2 = alloca ptr, align 8
  %3 = alloca i32, align 4
  %4 = alloca i64, align 8
  %5 = alloca ptr, align 8
  %6 = alloca ptr, align 8
  store ptr %0, ptr %2, align 8, !tbaa !19
  call void @llvm.lifetime.start.p0(i64 4, ptr %3) #6
  store i32 -110, ptr %3, align 4, !tbaa !8
  call void @llvm.lifetime.start.p0(i64 8, ptr %4) #6
  store i64 0, ptr %4, align 8, !tbaa !21
  call void @llvm.lifetime.start.p0(i64 8, ptr %5) #6
  call void @llvm.lifetime.start.p0(i64 8, ptr %6) #6
  br label %7

7:                                                ; preds = %1
  %8 = load ptr, ptr %2, align 8, !tbaa !19
  %9 = call i32 @mbedtls_mpi_grow(ptr noundef %8, i64 noundef 6)
  store i32 %9, ptr %3, align 4, !tbaa !8
  %10 = icmp ne i32 %9, 0
  br i1 %10, label %11, label %12

11:                                               ; preds = %7
  br label %78

12:                                               ; preds = %7
  br label %13

13:                                               ; preds = %12
  br label %14

14:                                               ; preds = %13
  %15 = load ptr, ptr %2, align 8, !tbaa !19
  %16 = getelementptr inbounds nuw %struct.mbedtls_mpi, ptr %15, i32 0, i32 0
  %17 = load ptr, ptr %16, align 8, !tbaa !22
  store ptr %17, ptr %5, align 8, !tbaa !23
  %18 = load ptr, ptr %5, align 8, !tbaa !23
  %19 = load ptr, ptr %2, align 8, !tbaa !19
  %20 = getelementptr inbounds nuw %struct.mbedtls_mpi, ptr %19, i32 0, i32 2
  %21 = load i16, ptr %20, align 2, !tbaa !24
  %22 = zext i16 %21 to i32
  %23 = sext i32 %22 to i64
  %24 = getelementptr inbounds i64, ptr %18, i64 %23
  store ptr %24, ptr %6, align 8, !tbaa !23
  %25 = load ptr, ptr %5, align 8, !tbaa !23
  %26 = load ptr, ptr %2, align 8, !tbaa !19
  %27 = getelementptr inbounds nuw %struct.mbedtls_mpi, ptr %26, i32 0, i32 0
  %28 = load ptr, ptr %27, align 8, !tbaa !22
  %29 = getelementptr inbounds nuw i64, ptr %28, i64 3
  call void @add64(ptr noundef %25, ptr noundef %29, ptr noundef %4)
  %30 = load ptr, ptr %5, align 8, !tbaa !23
  %31 = load ptr, ptr %2, align 8, !tbaa !19
  %32 = getelementptr inbounds nuw %struct.mbedtls_mpi, ptr %31, i32 0, i32 0
  %33 = load ptr, ptr %32, align 8, !tbaa !22
  %34 = getelementptr inbounds nuw i64, ptr %33, i64 5
  call void @add64(ptr noundef %30, ptr noundef %34, ptr noundef %4)
  %35 = load ptr, ptr %5, align 8, !tbaa !23
  %36 = getelementptr inbounds nuw i64, ptr %35, i64 1
  store ptr %36, ptr %5, align 8, !tbaa !23
  %37 = load ptr, ptr %5, align 8, !tbaa !23
  call void @carry64(ptr noundef %37, ptr noundef %4)
  %38 = load ptr, ptr %5, align 8, !tbaa !23
  %39 = load ptr, ptr %2, align 8, !tbaa !19
  %40 = getelementptr inbounds nuw %struct.mbedtls_mpi, ptr %39, i32 0, i32 0
  %41 = load ptr, ptr %40, align 8, !tbaa !22
  %42 = getelementptr inbounds nuw i64, ptr %41, i64 3
  call void @add64(ptr noundef %38, ptr noundef %42, ptr noundef %4)
  %43 = load ptr, ptr %5, align 8, !tbaa !23
  %44 = load ptr, ptr %2, align 8, !tbaa !19
  %45 = getelementptr inbounds nuw %struct.mbedtls_mpi, ptr %44, i32 0, i32 0
  %46 = load ptr, ptr %45, align 8, !tbaa !22
  %47 = getelementptr inbounds nuw i64, ptr %46, i64 4
  call void @add64(ptr noundef %43, ptr noundef %47, ptr noundef %4)
  %48 = load ptr, ptr %5, align 8, !tbaa !23
  %49 = load ptr, ptr %2, align 8, !tbaa !19
  %50 = getelementptr inbounds nuw %struct.mbedtls_mpi, ptr %49, i32 0, i32 0
  %51 = load ptr, ptr %50, align 8, !tbaa !22
  %52 = getelementptr inbounds nuw i64, ptr %51, i64 5
  call void @add64(ptr noundef %48, ptr noundef %52, ptr noundef %4)
  %53 = load ptr, ptr %5, align 8, !tbaa !23
  %54 = getelementptr inbounds nuw i64, ptr %53, i64 1
  store ptr %54, ptr %5, align 8, !tbaa !23
  %55 = load ptr, ptr %5, align 8, !tbaa !23
  call void @carry64(ptr noundef %55, ptr noundef %4)
  %56 = load ptr, ptr %5, align 8, !tbaa !23
  %57 = load ptr, ptr %2, align 8, !tbaa !19
  %58 = getelementptr inbounds nuw %struct.mbedtls_mpi, ptr %57, i32 0, i32 0
  %59 = load ptr, ptr %58, align 8, !tbaa !22
  %60 = getelementptr inbounds nuw i64, ptr %59, i64 4
  call void @add64(ptr noundef %56, ptr noundef %60, ptr noundef %4)
  %61 = load ptr, ptr %5, align 8, !tbaa !23
  %62 = load ptr, ptr %2, align 8, !tbaa !19
  %63 = getelementptr inbounds nuw %struct.mbedtls_mpi, ptr %62, i32 0, i32 0
  %64 = load ptr, ptr %63, align 8, !tbaa !22
  %65 = getelementptr inbounds nuw i64, ptr %64, i64 5
  call void @add64(ptr noundef %61, ptr noundef %65, ptr noundef %4)
  %66 = load ptr, ptr %5, align 8, !tbaa !23
  %67 = getelementptr inbounds nuw i64, ptr %66, i64 1
  store ptr %67, ptr %5, align 8, !tbaa !23
  %68 = load i64, ptr %4, align 8, !tbaa !21
  %69 = load ptr, ptr %5, align 8, !tbaa !23
  store i64 %68, ptr %69, align 8, !tbaa !21
  br label %70

70:                                               ; preds = %75, %14
  %71 = load ptr, ptr %5, align 8, !tbaa !23
  %72 = getelementptr inbounds nuw i64, ptr %71, i32 1
  store ptr %72, ptr %5, align 8, !tbaa !23
  %73 = load ptr, ptr %6, align 8, !tbaa !23
  %74 = icmp ult ptr %72, %73
  br i1 %74, label %75, label %77

75:                                               ; preds = %70
  %76 = load ptr, ptr %5, align 8, !tbaa !23
  store i64 0, ptr %76, align 8, !tbaa !21
  br label %70, !llvm.loop !25

77:                                               ; preds = %70
  br label %78

78:                                               ; preds = %77, %11
  %79 = load i32, ptr %3, align 4, !tbaa !8
  call void @llvm.lifetime.end.p0(i64 8, ptr %6) #6
  call void @llvm.lifetime.end.p0(i64 8, ptr %5) #6
  call void @llvm.lifetime.end.p0(i64 8, ptr %4) #6
  call void @llvm.lifetime.end.p0(i64 4, ptr %3) #6
  ret i32 %79
}