; Function Attrs: nounwind uwtable
define internal i32 @ecp_mod_p192(ptr noundef %0) #0 {
  %2 = tail call i32 @mbedtls_mpi_grow(ptr noundef %0, i64 noundef 6) #7
  %.not = icmp eq i32 %2, 0
  br i1 %.not, label %3, label %.loopexit

3:                                                ; preds = %1
  %4 = load ptr, ptr %0, align 8, !tbaa !18
  %5 = getelementptr inbounds nuw i8, ptr %0, i64 10
  %6 = load i16, ptr %5, align 2, !tbaa !17
  %7 = getelementptr inbounds nuw i8, ptr %4, i64 24
  %8 = load i64, ptr %4, align 8, !tbaa !24
  %9 = load i64, ptr %7, align 8, !tbaa !24
  %10 = add i64 %9, %8
  %11 = icmp ult i64 %10, %9
  %12 = zext i1 %11 to i64
  %13 = getelementptr inbounds nuw i8, ptr %4, i64 40
  %14 = load i64, ptr %13, align 8, !tbaa !24
  %15 = add i64 %14, %10
  store i64 %15, ptr %4, align 8, !tbaa !24
  %16 = icmp ult i64 %15, %14
  %17 = zext i1 %16 to i64
  %18 = add nuw nsw i64 %17, %12
  %19 = getelementptr inbounds nuw i8, ptr %4, i64 8
  %20 = load i64, ptr %19, align 8, !tbaa !24
  %21 = add i64 %18, %20
  %22 = icmp ult i64 %21, %18
  %23 = zext i1 %22 to i64
  %24 = add i64 %21, %9
  %25 = icmp ult i64 %24, %9
  %26 = zext i1 %25 to i64
  %27 = add nuw nsw i64 %26, %23
  %28 = getelementptr i8, ptr %4, i64 32
  %29 = load i64, ptr %28, align 8, !tbaa !24
  %30 = add i64 %24, %29
  %31 = icmp ult i64 %30, %29
  %32 = zext i1 %31 to i64
  %33 = add nuw nsw i64 %27, %32
  %34 = add i64 %30, %14
  store i64 %34, ptr %19, align 8, !tbaa !24
  %35 = icmp ult i64 %34, %14
  %36 = zext i1 %35 to i64
  %37 = add nuw nsw i64 %33, %36
  %38 = getelementptr inbounds nuw i8, ptr %4, i64 16
  %39 = load i64, ptr %38, align 8, !tbaa !24
  %40 = add i64 %37, %39
  %41 = icmp ult i64 %40, %37
  %42 = zext i1 %41 to i64
  %43 = add i64 %40, %29
  %44 = icmp ult i64 %43, %29
  %45 = zext i1 %44 to i64
  %46 = add nuw nsw i64 %45, %42
  %47 = add i64 %43, %14
  store i64 %47, ptr %38, align 8, !tbaa !24
  %48 = icmp ult i64 %47, %14
  %49 = zext i1 %48 to i64
  %50 = add nuw nsw i64 %46, %49
  store i64 %50, ptr %7, align 8, !tbaa !24
  %51 = icmp ugt i16 %6, 4
  br i1 %51, label %.lr.ph.preheader, label %.loopexit

.lr.ph.preheader:                                 ; preds = %3
  %52 = zext i16 %6 to i64
  %.idx = shl nuw nsw i64 %52, 3
  %53 = ptrtoint ptr %4 to i64
  %54 = add i64 %.idx, %53
  %55 = add i64 %53, 40
  %umax = tail call i64 @llvm.umax.i64(i64 %54, i64 %55)
  %56 = add i64 %umax, -33
  %57 = sub i64 %56, %53
  %58 = and i64 %57, -8
  %59 = add i64 %58, 8
  tail call void @llvm.memset.p0.i64(ptr nonnull align 8 %28, i8 0, i64 %59, i1 false), !tbaa !24
  br label %.loopexit

.loopexit:                                        ; preds = %.lr.ph.preheader, %3, %1
  ret i32 %2
}